
;CodeVisionAVR C Compiler V3.12 Advanced
;(C) Copyright 1998-2014 Pavel Haiduc, HP InfoTech s.r.l.
;http://www.hpinfotech.com

;Build configuration    : Debug
;Chip type              : ATmega328P
;Program type           : Application
;Clock frequency        : 16,000000 MHz
;Memory model           : Small
;Optimize for           : Size
;(s)printf features     : int, width
;(s)scanf features      : int, width
;External RAM size      : 0
;Data Stack size        : 512 byte(s)
;Heap size              : 0 byte(s)
;Promote 'char' to 'int': Yes
;'char' is unsigned     : Yes
;8 bit enums            : Yes
;Global 'const' stored in FLASH: Yes
;Enhanced function parameter passing: Yes
;Enhanced core instructions: On
;Automatic register allocation for global variables: On
;Smart register allocation: On

	#define _MODEL_SMALL_

	#pragma AVRPART ADMIN PART_NAME ATmega328P
	#pragma AVRPART MEMORY PROG_FLASH 32768
	#pragma AVRPART MEMORY EEPROM 1024
	#pragma AVRPART MEMORY INT_SRAM SIZE 2048
	#pragma AVRPART MEMORY INT_SRAM START_ADDR 0x100

	#define CALL_SUPPORTED 1

	.LISTMAC
	.EQU EERE=0x0
	.EQU EEWE=0x1
	.EQU EEMWE=0x2
	.EQU UDRE=0x5
	.EQU RXC=0x7
	.EQU EECR=0x1F
	.EQU EEDR=0x20
	.EQU EEARL=0x21
	.EQU EEARH=0x22
	.EQU SPSR=0x2D
	.EQU SPDR=0x2E
	.EQU SMCR=0x33
	.EQU MCUSR=0x34
	.EQU MCUCR=0x35
	.EQU WDTCSR=0x60
	.EQU UCSR0A=0xC0
	.EQU UDR0=0xC6
	.EQU SPL=0x3D
	.EQU SPH=0x3E
	.EQU SREG=0x3F
	.EQU GPIOR0=0x1E

	.DEF R0X0=R0
	.DEF R0X1=R1
	.DEF R0X2=R2
	.DEF R0X3=R3
	.DEF R0X4=R4
	.DEF R0X5=R5
	.DEF R0X6=R6
	.DEF R0X7=R7
	.DEF R0X8=R8
	.DEF R0X9=R9
	.DEF R0XA=R10
	.DEF R0XB=R11
	.DEF R0XC=R12
	.DEF R0XD=R13
	.DEF R0XE=R14
	.DEF R0XF=R15
	.DEF R0X10=R16
	.DEF R0X11=R17
	.DEF R0X12=R18
	.DEF R0X13=R19
	.DEF R0X14=R20
	.DEF R0X15=R21
	.DEF R0X16=R22
	.DEF R0X17=R23
	.DEF R0X18=R24
	.DEF R0X19=R25
	.DEF R0X1A=R26
	.DEF R0X1B=R27
	.DEF R0X1C=R28
	.DEF R0X1D=R29
	.DEF R0X1E=R30
	.DEF R0X1F=R31

	.EQU __SRAM_START=0x0100
	.EQU __SRAM_END=0x08FF
	.EQU __DSTACK_SIZE=0x0200
	.EQU __HEAP_SIZE=0x0000
	.EQU __CLEAR_SRAM_SIZE=__SRAM_END-__SRAM_START+1

	.MACRO __CPD1N
	CPI  R30,LOW(@0)
	LDI  R26,HIGH(@0)
	CPC  R31,R26
	LDI  R26,BYTE3(@0)
	CPC  R22,R26
	LDI  R26,BYTE4(@0)
	CPC  R23,R26
	.ENDM

	.MACRO __CPD2N
	CPI  R26,LOW(@0)
	LDI  R30,HIGH(@0)
	CPC  R27,R30
	LDI  R30,BYTE3(@0)
	CPC  R24,R30
	LDI  R30,BYTE4(@0)
	CPC  R25,R30
	.ENDM

	.MACRO __CPWRR
	CP   R@0,R@2
	CPC  R@1,R@3
	.ENDM

	.MACRO __CPWRN
	CPI  R@0,LOW(@2)
	LDI  R30,HIGH(@2)
	CPC  R@1,R30
	.ENDM

	.MACRO __ADDB1MN
	SUBI R30,LOW(-@0-(@1))
	.ENDM

	.MACRO __ADDB2MN
	SUBI R26,LOW(-@0-(@1))
	.ENDM

	.MACRO __ADDW1MN
	SUBI R30,LOW(-@0-(@1))
	SBCI R31,HIGH(-@0-(@1))
	.ENDM

	.MACRO __ADDW2MN
	SUBI R26,LOW(-@0-(@1))
	SBCI R27,HIGH(-@0-(@1))
	.ENDM

	.MACRO __ADDW1FN
	SUBI R30,LOW(-2*@0-(@1))
	SBCI R31,HIGH(-2*@0-(@1))
	.ENDM

	.MACRO __ADDD1FN
	SUBI R30,LOW(-2*@0-(@1))
	SBCI R31,HIGH(-2*@0-(@1))
	SBCI R22,BYTE3(-2*@0-(@1))
	.ENDM

	.MACRO __ADDD1N
	SUBI R30,LOW(-@0)
	SBCI R31,HIGH(-@0)
	SBCI R22,BYTE3(-@0)
	SBCI R23,BYTE4(-@0)
	.ENDM

	.MACRO __ADDD2N
	SUBI R26,LOW(-@0)
	SBCI R27,HIGH(-@0)
	SBCI R24,BYTE3(-@0)
	SBCI R25,BYTE4(-@0)
	.ENDM

	.MACRO __SUBD1N
	SUBI R30,LOW(@0)
	SBCI R31,HIGH(@0)
	SBCI R22,BYTE3(@0)
	SBCI R23,BYTE4(@0)
	.ENDM

	.MACRO __SUBD2N
	SUBI R26,LOW(@0)
	SBCI R27,HIGH(@0)
	SBCI R24,BYTE3(@0)
	SBCI R25,BYTE4(@0)
	.ENDM

	.MACRO __ANDBMNN
	LDS  R30,@0+(@1)
	ANDI R30,LOW(@2)
	STS  @0+(@1),R30
	.ENDM

	.MACRO __ANDWMNN
	LDS  R30,@0+(@1)
	ANDI R30,LOW(@2)
	STS  @0+(@1),R30
	LDS  R30,@0+(@1)+1
	ANDI R30,HIGH(@2)
	STS  @0+(@1)+1,R30
	.ENDM

	.MACRO __ANDD1N
	ANDI R30,LOW(@0)
	ANDI R31,HIGH(@0)
	ANDI R22,BYTE3(@0)
	ANDI R23,BYTE4(@0)
	.ENDM

	.MACRO __ANDD2N
	ANDI R26,LOW(@0)
	ANDI R27,HIGH(@0)
	ANDI R24,BYTE3(@0)
	ANDI R25,BYTE4(@0)
	.ENDM

	.MACRO __ORBMNN
	LDS  R30,@0+(@1)
	ORI  R30,LOW(@2)
	STS  @0+(@1),R30
	.ENDM

	.MACRO __ORWMNN
	LDS  R30,@0+(@1)
	ORI  R30,LOW(@2)
	STS  @0+(@1),R30
	LDS  R30,@0+(@1)+1
	ORI  R30,HIGH(@2)
	STS  @0+(@1)+1,R30
	.ENDM

	.MACRO __ORD1N
	ORI  R30,LOW(@0)
	ORI  R31,HIGH(@0)
	ORI  R22,BYTE3(@0)
	ORI  R23,BYTE4(@0)
	.ENDM

	.MACRO __ORD2N
	ORI  R26,LOW(@0)
	ORI  R27,HIGH(@0)
	ORI  R24,BYTE3(@0)
	ORI  R25,BYTE4(@0)
	.ENDM

	.MACRO __DELAY_USB
	LDI  R24,LOW(@0)
__DELAY_USB_LOOP:
	DEC  R24
	BRNE __DELAY_USB_LOOP
	.ENDM

	.MACRO __DELAY_USW
	LDI  R24,LOW(@0)
	LDI  R25,HIGH(@0)
__DELAY_USW_LOOP:
	SBIW R24,1
	BRNE __DELAY_USW_LOOP
	.ENDM

	.MACRO __GETD1S
	LDD  R30,Y+@0
	LDD  R31,Y+@0+1
	LDD  R22,Y+@0+2
	LDD  R23,Y+@0+3
	.ENDM

	.MACRO __GETD2S
	LDD  R26,Y+@0
	LDD  R27,Y+@0+1
	LDD  R24,Y+@0+2
	LDD  R25,Y+@0+3
	.ENDM

	.MACRO __PUTD1S
	STD  Y+@0,R30
	STD  Y+@0+1,R31
	STD  Y+@0+2,R22
	STD  Y+@0+3,R23
	.ENDM

	.MACRO __PUTD2S
	STD  Y+@0,R26
	STD  Y+@0+1,R27
	STD  Y+@0+2,R24
	STD  Y+@0+3,R25
	.ENDM

	.MACRO __PUTDZ2
	STD  Z+@0,R26
	STD  Z+@0+1,R27
	STD  Z+@0+2,R24
	STD  Z+@0+3,R25
	.ENDM

	.MACRO __CLRD1S
	STD  Y+@0,R30
	STD  Y+@0+1,R30
	STD  Y+@0+2,R30
	STD  Y+@0+3,R30
	.ENDM

	.MACRO __POINTB1MN
	LDI  R30,LOW(@0+(@1))
	.ENDM

	.MACRO __POINTW1MN
	LDI  R30,LOW(@0+(@1))
	LDI  R31,HIGH(@0+(@1))
	.ENDM

	.MACRO __POINTD1M
	LDI  R30,LOW(@0)
	LDI  R31,HIGH(@0)
	LDI  R22,BYTE3(@0)
	LDI  R23,BYTE4(@0)
	.ENDM

	.MACRO __POINTW1FN
	LDI  R30,LOW(2*@0+(@1))
	LDI  R31,HIGH(2*@0+(@1))
	.ENDM

	.MACRO __POINTD1FN
	LDI  R30,LOW(2*@0+(@1))
	LDI  R31,HIGH(2*@0+(@1))
	LDI  R22,BYTE3(2*@0+(@1))
	LDI  R23,BYTE4(2*@0+(@1))
	.ENDM

	.MACRO __POINTB2MN
	LDI  R26,LOW(@0+(@1))
	.ENDM

	.MACRO __POINTW2MN
	LDI  R26,LOW(@0+(@1))
	LDI  R27,HIGH(@0+(@1))
	.ENDM

	.MACRO __POINTW2FN
	LDI  R26,LOW(2*@0+(@1))
	LDI  R27,HIGH(2*@0+(@1))
	.ENDM

	.MACRO __POINTD2FN
	LDI  R26,LOW(2*@0+(@1))
	LDI  R27,HIGH(2*@0+(@1))
	LDI  R24,BYTE3(2*@0+(@1))
	LDI  R25,BYTE4(2*@0+(@1))
	.ENDM

	.MACRO __POINTBRM
	LDI  R@0,LOW(@1)
	.ENDM

	.MACRO __POINTWRM
	LDI  R@0,LOW(@2)
	LDI  R@1,HIGH(@2)
	.ENDM

	.MACRO __POINTBRMN
	LDI  R@0,LOW(@1+(@2))
	.ENDM

	.MACRO __POINTWRMN
	LDI  R@0,LOW(@2+(@3))
	LDI  R@1,HIGH(@2+(@3))
	.ENDM

	.MACRO __POINTWRFN
	LDI  R@0,LOW(@2*2+(@3))
	LDI  R@1,HIGH(@2*2+(@3))
	.ENDM

	.MACRO __GETD1N
	LDI  R30,LOW(@0)
	LDI  R31,HIGH(@0)
	LDI  R22,BYTE3(@0)
	LDI  R23,BYTE4(@0)
	.ENDM

	.MACRO __GETD2N
	LDI  R26,LOW(@0)
	LDI  R27,HIGH(@0)
	LDI  R24,BYTE3(@0)
	LDI  R25,BYTE4(@0)
	.ENDM

	.MACRO __GETB1MN
	LDS  R30,@0+(@1)
	.ENDM

	.MACRO __GETB1HMN
	LDS  R31,@0+(@1)
	.ENDM

	.MACRO __GETW1MN
	LDS  R30,@0+(@1)
	LDS  R31,@0+(@1)+1
	.ENDM

	.MACRO __GETD1MN
	LDS  R30,@0+(@1)
	LDS  R31,@0+(@1)+1
	LDS  R22,@0+(@1)+2
	LDS  R23,@0+(@1)+3
	.ENDM

	.MACRO __GETBRMN
	LDS  R@0,@1+(@2)
	.ENDM

	.MACRO __GETWRMN
	LDS  R@0,@2+(@3)
	LDS  R@1,@2+(@3)+1
	.ENDM

	.MACRO __GETWRZ
	LDD  R@0,Z+@2
	LDD  R@1,Z+@2+1
	.ENDM

	.MACRO __GETD2Z
	LDD  R26,Z+@0
	LDD  R27,Z+@0+1
	LDD  R24,Z+@0+2
	LDD  R25,Z+@0+3
	.ENDM

	.MACRO __GETB2MN
	LDS  R26,@0+(@1)
	.ENDM

	.MACRO __GETW2MN
	LDS  R26,@0+(@1)
	LDS  R27,@0+(@1)+1
	.ENDM

	.MACRO __GETD2MN
	LDS  R26,@0+(@1)
	LDS  R27,@0+(@1)+1
	LDS  R24,@0+(@1)+2
	LDS  R25,@0+(@1)+3
	.ENDM

	.MACRO __PUTB1MN
	STS  @0+(@1),R30
	.ENDM

	.MACRO __PUTW1MN
	STS  @0+(@1),R30
	STS  @0+(@1)+1,R31
	.ENDM

	.MACRO __PUTD1MN
	STS  @0+(@1),R30
	STS  @0+(@1)+1,R31
	STS  @0+(@1)+2,R22
	STS  @0+(@1)+3,R23
	.ENDM

	.MACRO __PUTB1EN
	LDI  R26,LOW(@0+(@1))
	LDI  R27,HIGH(@0+(@1))
	CALL __EEPROMWRB
	.ENDM

	.MACRO __PUTW1EN
	LDI  R26,LOW(@0+(@1))
	LDI  R27,HIGH(@0+(@1))
	CALL __EEPROMWRW
	.ENDM

	.MACRO __PUTD1EN
	LDI  R26,LOW(@0+(@1))
	LDI  R27,HIGH(@0+(@1))
	CALL __EEPROMWRD
	.ENDM

	.MACRO __PUTBR0MN
	STS  @0+(@1),R0
	.ENDM

	.MACRO __PUTBMRN
	STS  @0+(@1),R@2
	.ENDM

	.MACRO __PUTWMRN
	STS  @0+(@1),R@2
	STS  @0+(@1)+1,R@3
	.ENDM

	.MACRO __PUTBZR
	STD  Z+@1,R@0
	.ENDM

	.MACRO __PUTWZR
	STD  Z+@2,R@0
	STD  Z+@2+1,R@1
	.ENDM

	.MACRO __GETW1R
	MOV  R30,R@0
	MOV  R31,R@1
	.ENDM

	.MACRO __GETW2R
	MOV  R26,R@0
	MOV  R27,R@1
	.ENDM

	.MACRO __GETWRN
	LDI  R@0,LOW(@2)
	LDI  R@1,HIGH(@2)
	.ENDM

	.MACRO __PUTW1R
	MOV  R@0,R30
	MOV  R@1,R31
	.ENDM

	.MACRO __PUTW2R
	MOV  R@0,R26
	MOV  R@1,R27
	.ENDM

	.MACRO __ADDWRN
	SUBI R@0,LOW(-@2)
	SBCI R@1,HIGH(-@2)
	.ENDM

	.MACRO __ADDWRR
	ADD  R@0,R@2
	ADC  R@1,R@3
	.ENDM

	.MACRO __SUBWRN
	SUBI R@0,LOW(@2)
	SBCI R@1,HIGH(@2)
	.ENDM

	.MACRO __SUBWRR
	SUB  R@0,R@2
	SBC  R@1,R@3
	.ENDM

	.MACRO __ANDWRN
	ANDI R@0,LOW(@2)
	ANDI R@1,HIGH(@2)
	.ENDM

	.MACRO __ANDWRR
	AND  R@0,R@2
	AND  R@1,R@3
	.ENDM

	.MACRO __ORWRN
	ORI  R@0,LOW(@2)
	ORI  R@1,HIGH(@2)
	.ENDM

	.MACRO __ORWRR
	OR   R@0,R@2
	OR   R@1,R@3
	.ENDM

	.MACRO __EORWRR
	EOR  R@0,R@2
	EOR  R@1,R@3
	.ENDM

	.MACRO __GETWRS
	LDD  R@0,Y+@2
	LDD  R@1,Y+@2+1
	.ENDM

	.MACRO __PUTBSR
	STD  Y+@1,R@0
	.ENDM

	.MACRO __PUTWSR
	STD  Y+@2,R@0
	STD  Y+@2+1,R@1
	.ENDM

	.MACRO __MOVEWRR
	MOV  R@0,R@2
	MOV  R@1,R@3
	.ENDM

	.MACRO __INWR
	IN   R@0,@2
	IN   R@1,@2+1
	.ENDM

	.MACRO __OUTWR
	OUT  @2+1,R@1
	OUT  @2,R@0
	.ENDM

	.MACRO __CALL1MN
	LDS  R30,@0+(@1)
	LDS  R31,@0+(@1)+1
	ICALL
	.ENDM

	.MACRO __CALL1FN
	LDI  R30,LOW(2*@0+(@1))
	LDI  R31,HIGH(2*@0+(@1))
	CALL __GETW1PF
	ICALL
	.ENDM

	.MACRO __CALL2EN
	PUSH R26
	PUSH R27
	LDI  R26,LOW(@0+(@1))
	LDI  R27,HIGH(@0+(@1))
	CALL __EEPROMRDW
	POP  R27
	POP  R26
	ICALL
	.ENDM

	.MACRO __CALL2EX
	SUBI R26,LOW(-@0)
	SBCI R27,HIGH(-@0)
	CALL __EEPROMRDD
	ICALL
	.ENDM

	.MACRO __GETW1STACK
	IN   R30,SPL
	IN   R31,SPH
	ADIW R30,@0+1
	LD   R0,Z+
	LD   R31,Z
	MOV  R30,R0
	.ENDM

	.MACRO __GETD1STACK
	IN   R30,SPL
	IN   R31,SPH
	ADIW R30,@0+1
	LD   R0,Z+
	LD   R1,Z+
	LD   R22,Z
	MOVW R30,R0
	.ENDM

	.MACRO __NBST
	BST  R@0,@1
	IN   R30,SREG
	LDI  R31,0x40
	EOR  R30,R31
	OUT  SREG,R30
	.ENDM


	.MACRO __PUTB1SN
	LDD  R26,Y+@0
	LDD  R27,Y+@0+1
	SUBI R26,LOW(-@1)
	SBCI R27,HIGH(-@1)
	ST   X,R30
	.ENDM

	.MACRO __PUTW1SN
	LDD  R26,Y+@0
	LDD  R27,Y+@0+1
	SUBI R26,LOW(-@1)
	SBCI R27,HIGH(-@1)
	ST   X+,R30
	ST   X,R31
	.ENDM

	.MACRO __PUTD1SN
	LDD  R26,Y+@0
	LDD  R27,Y+@0+1
	SUBI R26,LOW(-@1)
	SBCI R27,HIGH(-@1)
	CALL __PUTDP1
	.ENDM

	.MACRO __PUTB1SNS
	LDD  R26,Y+@0
	LDD  R27,Y+@0+1
	ADIW R26,@1
	ST   X,R30
	.ENDM

	.MACRO __PUTW1SNS
	LDD  R26,Y+@0
	LDD  R27,Y+@0+1
	ADIW R26,@1
	ST   X+,R30
	ST   X,R31
	.ENDM

	.MACRO __PUTD1SNS
	LDD  R26,Y+@0
	LDD  R27,Y+@0+1
	ADIW R26,@1
	CALL __PUTDP1
	.ENDM

	.MACRO __PUTB1PMN
	LDS  R26,@0
	LDS  R27,@0+1
	SUBI R26,LOW(-@1)
	SBCI R27,HIGH(-@1)
	ST   X,R30
	.ENDM

	.MACRO __PUTW1PMN
	LDS  R26,@0
	LDS  R27,@0+1
	SUBI R26,LOW(-@1)
	SBCI R27,HIGH(-@1)
	ST   X+,R30
	ST   X,R31
	.ENDM

	.MACRO __PUTD1PMN
	LDS  R26,@0
	LDS  R27,@0+1
	SUBI R26,LOW(-@1)
	SBCI R27,HIGH(-@1)
	CALL __PUTDP1
	.ENDM

	.MACRO __PUTB1PMNS
	LDS  R26,@0
	LDS  R27,@0+1
	ADIW R26,@1
	ST   X,R30
	.ENDM

	.MACRO __PUTW1PMNS
	LDS  R26,@0
	LDS  R27,@0+1
	ADIW R26,@1
	ST   X+,R30
	ST   X,R31
	.ENDM

	.MACRO __PUTD1PMNS
	LDS  R26,@0
	LDS  R27,@0+1
	ADIW R26,@1
	CALL __PUTDP1
	.ENDM

	.MACRO __PUTB1RN
	MOVW R26,R@0
	SUBI R26,LOW(-@1)
	SBCI R27,HIGH(-@1)
	ST   X,R30
	.ENDM

	.MACRO __PUTW1RN
	MOVW R26,R@0
	SUBI R26,LOW(-@1)
	SBCI R27,HIGH(-@1)
	ST   X+,R30
	ST   X,R31
	.ENDM

	.MACRO __PUTD1RN
	MOVW R26,R@0
	SUBI R26,LOW(-@1)
	SBCI R27,HIGH(-@1)
	CALL __PUTDP1
	.ENDM

	.MACRO __PUTB1RNS
	MOVW R26,R@0
	ADIW R26,@1
	ST   X,R30
	.ENDM

	.MACRO __PUTW1RNS
	MOVW R26,R@0
	ADIW R26,@1
	ST   X+,R30
	ST   X,R31
	.ENDM

	.MACRO __PUTD1RNS
	MOVW R26,R@0
	ADIW R26,@1
	CALL __PUTDP1
	.ENDM

	.MACRO __PUTB1RON
	MOV  R26,R@0
	MOV  R27,R@1
	SUBI R26,LOW(-@2)
	SBCI R27,HIGH(-@2)
	ST   X,R30
	.ENDM

	.MACRO __PUTW1RON
	MOV  R26,R@0
	MOV  R27,R@1
	SUBI R26,LOW(-@2)
	SBCI R27,HIGH(-@2)
	ST   X+,R30
	ST   X,R31
	.ENDM

	.MACRO __PUTD1RON
	MOV  R26,R@0
	MOV  R27,R@1
	SUBI R26,LOW(-@2)
	SBCI R27,HIGH(-@2)
	CALL __PUTDP1
	.ENDM

	.MACRO __PUTB1RONS
	MOV  R26,R@0
	MOV  R27,R@1
	ADIW R26,@2
	ST   X,R30
	.ENDM

	.MACRO __PUTW1RONS
	MOV  R26,R@0
	MOV  R27,R@1
	ADIW R26,@2
	ST   X+,R30
	ST   X,R31
	.ENDM

	.MACRO __PUTD1RONS
	MOV  R26,R@0
	MOV  R27,R@1
	ADIW R26,@2
	CALL __PUTDP1
	.ENDM


	.MACRO __GETB1SX
	MOVW R30,R28
	SUBI R30,LOW(-@0)
	SBCI R31,HIGH(-@0)
	LD   R30,Z
	.ENDM

	.MACRO __GETB1HSX
	MOVW R30,R28
	SUBI R30,LOW(-@0)
	SBCI R31,HIGH(-@0)
	LD   R31,Z
	.ENDM

	.MACRO __GETW1SX
	MOVW R30,R28
	SUBI R30,LOW(-@0)
	SBCI R31,HIGH(-@0)
	LD   R0,Z+
	LD   R31,Z
	MOV  R30,R0
	.ENDM

	.MACRO __GETD1SX
	MOVW R30,R28
	SUBI R30,LOW(-@0)
	SBCI R31,HIGH(-@0)
	LD   R0,Z+
	LD   R1,Z+
	LD   R22,Z+
	LD   R23,Z
	MOVW R30,R0
	.ENDM

	.MACRO __GETB2SX
	MOVW R26,R28
	SUBI R26,LOW(-@0)
	SBCI R27,HIGH(-@0)
	LD   R26,X
	.ENDM

	.MACRO __GETW2SX
	MOVW R26,R28
	SUBI R26,LOW(-@0)
	SBCI R27,HIGH(-@0)
	LD   R0,X+
	LD   R27,X
	MOV  R26,R0
	.ENDM

	.MACRO __GETD2SX
	MOVW R26,R28
	SUBI R26,LOW(-@0)
	SBCI R27,HIGH(-@0)
	LD   R0,X+
	LD   R1,X+
	LD   R24,X+
	LD   R25,X
	MOVW R26,R0
	.ENDM

	.MACRO __GETBRSX
	MOVW R30,R28
	SUBI R30,LOW(-@1)
	SBCI R31,HIGH(-@1)
	LD   R@0,Z
	.ENDM

	.MACRO __GETWRSX
	MOVW R30,R28
	SUBI R30,LOW(-@2)
	SBCI R31,HIGH(-@2)
	LD   R@0,Z+
	LD   R@1,Z
	.ENDM

	.MACRO __GETBRSX2
	MOVW R26,R28
	SUBI R26,LOW(-@1)
	SBCI R27,HIGH(-@1)
	LD   R@0,X
	.ENDM

	.MACRO __GETWRSX2
	MOVW R26,R28
	SUBI R26,LOW(-@2)
	SBCI R27,HIGH(-@2)
	LD   R@0,X+
	LD   R@1,X
	.ENDM

	.MACRO __LSLW8SX
	MOVW R30,R28
	SUBI R30,LOW(-@0)
	SBCI R31,HIGH(-@0)
	LD   R31,Z
	CLR  R30
	.ENDM

	.MACRO __PUTB1SX
	MOVW R26,R28
	SUBI R26,LOW(-@0)
	SBCI R27,HIGH(-@0)
	ST   X,R30
	.ENDM

	.MACRO __PUTW1SX
	MOVW R26,R28
	SUBI R26,LOW(-@0)
	SBCI R27,HIGH(-@0)
	ST   X+,R30
	ST   X,R31
	.ENDM

	.MACRO __PUTD1SX
	MOVW R26,R28
	SUBI R26,LOW(-@0)
	SBCI R27,HIGH(-@0)
	ST   X+,R30
	ST   X+,R31
	ST   X+,R22
	ST   X,R23
	.ENDM

	.MACRO __CLRW1SX
	MOVW R26,R28
	SUBI R26,LOW(-@0)
	SBCI R27,HIGH(-@0)
	ST   X+,R30
	ST   X,R30
	.ENDM

	.MACRO __CLRD1SX
	MOVW R26,R28
	SUBI R26,LOW(-@0)
	SBCI R27,HIGH(-@0)
	ST   X+,R30
	ST   X+,R30
	ST   X+,R30
	ST   X,R30
	.ENDM

	.MACRO __PUTB2SX
	MOVW R30,R28
	SUBI R30,LOW(-@0)
	SBCI R31,HIGH(-@0)
	ST   Z,R26
	.ENDM

	.MACRO __PUTW2SX
	MOVW R30,R28
	SUBI R30,LOW(-@0)
	SBCI R31,HIGH(-@0)
	ST   Z+,R26
	ST   Z,R27
	.ENDM

	.MACRO __PUTD2SX
	MOVW R30,R28
	SUBI R30,LOW(-@0)
	SBCI R31,HIGH(-@0)
	ST   Z+,R26
	ST   Z+,R27
	ST   Z+,R24
	ST   Z,R25
	.ENDM

	.MACRO __PUTBSRX
	MOVW R30,R28
	SUBI R30,LOW(-@1)
	SBCI R31,HIGH(-@1)
	ST   Z,R@0
	.ENDM

	.MACRO __PUTWSRX
	MOVW R30,R28
	SUBI R30,LOW(-@2)
	SBCI R31,HIGH(-@2)
	ST   Z+,R@0
	ST   Z,R@1
	.ENDM

	.MACRO __PUTB1SNX
	MOVW R26,R28
	SUBI R26,LOW(-@0)
	SBCI R27,HIGH(-@0)
	LD   R0,X+
	LD   R27,X
	MOV  R26,R0
	SUBI R26,LOW(-@1)
	SBCI R27,HIGH(-@1)
	ST   X,R30
	.ENDM

	.MACRO __PUTW1SNX
	MOVW R26,R28
	SUBI R26,LOW(-@0)
	SBCI R27,HIGH(-@0)
	LD   R0,X+
	LD   R27,X
	MOV  R26,R0
	SUBI R26,LOW(-@1)
	SBCI R27,HIGH(-@1)
	ST   X+,R30
	ST   X,R31
	.ENDM

	.MACRO __PUTD1SNX
	MOVW R26,R28
	SUBI R26,LOW(-@0)
	SBCI R27,HIGH(-@0)
	LD   R0,X+
	LD   R27,X
	MOV  R26,R0
	SUBI R26,LOW(-@1)
	SBCI R27,HIGH(-@1)
	ST   X+,R30
	ST   X+,R31
	ST   X+,R22
	ST   X,R23
	.ENDM

	.MACRO __MULBRR
	MULS R@0,R@1
	MOVW R30,R0
	.ENDM

	.MACRO __MULBRRU
	MUL  R@0,R@1
	MOVW R30,R0
	.ENDM

	.MACRO __MULBRR0
	MULS R@0,R@1
	.ENDM

	.MACRO __MULBRRU0
	MUL  R@0,R@1
	.ENDM

	.MACRO __MULBNWRU
	LDI  R26,@2
	MUL  R26,R@0
	MOVW R30,R0
	MUL  R26,R@1
	ADD  R31,R0
	.ENDM

;GPIOR0 INITIALIZATION VALUE
	.EQU __GPIOR0_INIT=0x00

	.CSEG
	.ORG 0x00

;START OF CODE MARKER
__START_OF_CODE:

;INTERRUPT VECTORS
	JMP  __RESET
	JMP  0x00
	JMP  0x00
	JMP  0x00
	JMP  0x00
	JMP  0x00
	JMP  0x00
	JMP  0x00
	JMP  0x00
	JMP  0x00
	JMP  0x00
	JMP  0x00
	JMP  0x00
	JMP  0x00
	JMP  0x00
	JMP  0x00
	JMP  0x00
	JMP  0x00
	JMP  0x00
	JMP  0x00
	JMP  0x00
	JMP  0x00
	JMP  0x00
	JMP  0x00
	JMP  0x00
	JMP  0x00

_tbl10_G101:
	.DB  0x10,0x27,0xE8,0x3,0x64,0x0,0xA,0x0
	.DB  0x1,0x0
_tbl16_G101:
	.DB  0x0,0x10,0x0,0x1,0x10,0x0,0x1,0x0

_0x3:
	.DB  LOW(_0x0*2),HIGH(_0x0*2),LOW(_0x0*2+7),HIGH(_0x0*2+7),LOW(_0x0*2+14),HIGH(_0x0*2+14),LOW(_0x0*2+22),HIGH(_0x0*2+22)
	.DB  LOW(_0x0*2+32),HIGH(_0x0*2+32),LOW(_0x0*2+41),HIGH(_0x0*2+41),LOW(_0x0*2+48),HIGH(_0x0*2+48)
_0x0:
	.DB  0x53,0x75,0x6E,0x64,0x61,0x79,0x0,0x4D
	.DB  0x6F,0x6E,0x64,0x61,0x79,0x0,0x54,0x75
	.DB  0x65,0x73,0x64,0x61,0x79,0x0,0x57,0x65
	.DB  0x64,0x6E,0x65,0x73,0x64,0x61,0x79,0x0
	.DB  0x54,0x68,0x75,0x72,0x73,0x64,0x61,0x79
	.DB  0x0,0x46,0x72,0x69,0x64,0x61,0x79,0x0
	.DB  0x53,0x61,0x74,0x75,0x72,0x64,0x61,0x79
	.DB  0x0,0x25,0x30,0x32,0x75,0x5C,0x25,0x30
	.DB  0x32,0x75,0x5C,0x25,0x30,0x32,0x75,0x20
	.DB  0x25,0x70,0xD,0x0,0x25,0x30,0x32,0x75
	.DB  0x3A,0x25,0x30,0x32,0x75,0x3A,0x25,0x30
	.DB  0x32,0x75,0xD,0x0

__GLOBAL_INI_TBL:
	.DW  0x0E
	.DW  _weekdays
	.DW  _0x3*2

_0xFFFFFFFF:
	.DW  0

#define __GLOBAL_INI_TBL_PRESENT 1

__RESET:
	CLI
	CLR  R30
	OUT  EECR,R30

;INTERRUPT VECTORS ARE PLACED
;AT THE START OF FLASH
	LDI  R31,1
	OUT  MCUCR,R31
	OUT  MCUCR,R30

;CLEAR R2-R14
	LDI  R24,(14-2)+1
	LDI  R26,2
	CLR  R27
__CLEAR_REG:
	ST   X+,R30
	DEC  R24
	BRNE __CLEAR_REG

;CLEAR SRAM
	LDI  R24,LOW(__CLEAR_SRAM_SIZE)
	LDI  R25,HIGH(__CLEAR_SRAM_SIZE)
	LDI  R26,LOW(__SRAM_START)
	LDI  R27,HIGH(__SRAM_START)
__CLEAR_SRAM:
	ST   X+,R30
	SBIW R24,1
	BRNE __CLEAR_SRAM

;GLOBAL VARIABLES INITIALIZATION
	LDI  R30,LOW(__GLOBAL_INI_TBL*2)
	LDI  R31,HIGH(__GLOBAL_INI_TBL*2)
__GLOBAL_INI_NEXT:
	LPM  R24,Z+
	LPM  R25,Z+
	SBIW R24,0
	BREQ __GLOBAL_INI_END
	LPM  R26,Z+
	LPM  R27,Z+
	LPM  R0,Z+
	LPM  R1,Z+
	MOVW R22,R30
	MOVW R30,R0
__GLOBAL_INI_LOOP:
	LPM  R0,Z+
	ST   X+,R0
	SBIW R24,1
	BRNE __GLOBAL_INI_LOOP
	MOVW R30,R22
	RJMP __GLOBAL_INI_NEXT
__GLOBAL_INI_END:

;GPIOR0 INITIALIZATION
	LDI  R30,__GPIOR0_INIT
	OUT  GPIOR0,R30

;HARDWARE STACK POINTER INITIALIZATION
	LDI  R30,LOW(__SRAM_END-__HEAP_SIZE)
	OUT  SPL,R30
	LDI  R30,HIGH(__SRAM_END-__HEAP_SIZE)
	OUT  SPH,R30

;DATA STACK POINTER INITIALIZATION
	LDI  R28,LOW(__SRAM_START+__DSTACK_SIZE)
	LDI  R29,HIGH(__SRAM_START+__DSTACK_SIZE)

	JMP  _main

	.ESEG
	.ORG 0

	.DSEG
	.ORG 0x300

	.CSEG
;#include <mega328p.h>
	#ifndef __SLEEP_DEFINED__
	#define __SLEEP_DEFINED__
	.EQU __se_bit=0x01
	.EQU __sm_mask=0x0E
	.EQU __sm_adc_noise_red=0x02
	.EQU __sm_powerdown=0x04
	.EQU __sm_powersave=0x06
	.EQU __sm_standby=0x0C
	.EQU __sm_ext_standby=0x0E
	.SET power_ctrl_reg=smcr
	#endif
;
;    #asm
       .equ __i2c_port=8 ;PORTC
       .equ __sda_bit=4
       .equ __scl_bit=5
; 0000 0007     #endasm
;
;#include <i2c.h>    // Функции I2C
;#include <ds1307.h> // Функции DS1307
;#include <stdio.h>  // Функции стандартного ввода-вывода
;#include <delay.h>  // Функции ожидания
;
;#define RS0 0
;#define RS1 1
;
;/* Настройки для UART */
;#define HI(x) ((x)>>8)
;#define LO(x) ((x)& 0xFF)
;
;#define F_CPU 16000000UL  // Частота МК
;#define BAUDRATE 9600L  // Скорость передачи UART
;#define BAUDRATE_REG (F_CPU/(16*BAUDRATE)-1)
;
;// Инициализация UART
;void init_UART()
; 0000 001B {

	.CSEG
_init_UART:
; .FSTART _init_UART
; 0000 001C 	UCSR0A = 0;						                    // Асинхронный режим, 1 стоповый бит, без проверки четности
	LDI  R30,LOW(0)
	STS  192,R30
; 0000 001D 	UCSR0B = (1<<TXEN0);					            // Включаем передатчик
	LDI  R30,LOW(8)
	STS  193,R30
; 0000 001E 	UCSR0C = (1<<UCSZ01) | (1<<UCSZ00) | (0<<UCPOL0);	// 8 бит данных
	LDI  R30,LOW(6)
	STS  194,R30
; 0000 001F 	UBRR0H = HI(BAUDRATE_REG);				            // Задаем скорость передачи
	LDI  R30,LOW(0)
	STS  197,R30
; 0000 0020 	UBRR0L = LO(BAUDRATE_REG);
	LDI  R30,LOW(103)
	STS  196,R30
; 0000 0021 }
	RET
; .FEND
;
;// Дни недели
;const char * weekdays[7] = {"Sunday", "Monday", "Tuesday", "Wednesday", "Thursday", "Friday", "Saturday"};

	.DSEG
;
;void main(void)
; 0000 0027 {

	.CSEG
_main:
; .FSTART _main
; 0000 0028     // Параметры часов
; 0000 0029     unsigned char rs = (1 << RS1)|(1 << RS0);
; 0000 002A     unsigned char sqwe = 1;
; 0000 002B     unsigned char out = 0;
; 0000 002C 
; 0000 002D     // Дата и время
; 0000 002E     unsigned char week_day, day, month, year;
; 0000 002F     unsigned char hour, minute, second;
; 0000 0030 
; 0000 0031     // Делитель тактовой частоты: 1
; 0000 0032     #pragma optsize-
; 0000 0033     CLKPR=(1<<CLKPCE);
	SBIW R28,4
;	rs -> R17
;	sqwe -> R16
;	out -> R19
;	week_day -> R18
;	day -> R21
;	month -> R20
;	year -> Y+3
;	hour -> Y+2
;	minute -> Y+1
;	second -> Y+0
	LDI  R17,3
	LDI  R16,1
	LDI  R19,0
	LDI  R30,LOW(128)
	STS  97,R30
; 0000 0034     CLKPR=(0<<CLKPCE) | (0<<CLKPS3) | (0<<CLKPS2) | (0<<CLKPS1) | (0<<CLKPS0);
	LDI  R30,LOW(0)
	STS  97,R30
; 0000 0035     #ifdef _OPTIMIZE_SIZE_
; 0000 0036     #pragma optsize+
; 0000 0037     #endif
; 0000 0038 
; 0000 0039     // Выключить аналоговый компаратор
; 0000 003A     ACSR=(1<<ACD);
	LDI  R30,LOW(128)
	OUT  0x30,R30
; 0000 003B     // Выключить АЦП
; 0000 003C     ADCSRA=(0<<ADEN) | (0<<ADSC) | (0<<ADATE) | (0<<ADIF) | (0<<ADIE) | (0<<ADPS2) | (0<<ADPS1) | (0<<ADPS0);
	LDI  R30,LOW(0)
	STS  122,R30
; 0000 003D 
; 0000 003E     // Запустить UART
; 0000 003F     init_UART();
	RCALL _init_UART
; 0000 0040 
; 0000 0041     // Запустить I2C
; 0000 0042     i2c_init();
	CALL _i2c_init
; 0000 0043 
; 0000 0044     // Настройка часов
; 0000 0045     rtc_init(rs, sqwe, out);
	ST   -Y,R17
	ST   -Y,R16
	MOV  R26,R19
	RCALL _rtc_init
; 0000 0046 
; 0000 0047     // Установка даты: день недели, день, месяц, год
; 0000 0048     rtc_set_date(6, 20, 12, 24);
	LDI  R30,LOW(6)
	ST   -Y,R30
	LDI  R30,LOW(20)
	ST   -Y,R30
	LDI  R30,LOW(12)
	ST   -Y,R30
	LDI  R26,LOW(24)
	RCALL _rtc_set_date
; 0000 0049 
; 0000 004A     // Установка времени: часы, минуты, секунды
; 0000 004B     rtc_set_time(16, 1, 30);
	LDI  R30,LOW(16)
	ST   -Y,R30
	LDI  R30,LOW(1)
	ST   -Y,R30
	LDI  R26,LOW(30)
	RCALL _rtc_set_time
; 0000 004C 
; 0000 004D     while (1) // смотрим время каждую секунду
_0x4:
; 0000 004E     {
; 0000 004F         rtc_get_date(&week_day,&day,&month,&year);
	IN   R30,SPL
	IN   R31,SPH
	ST   -Y,R31
	ST   -Y,R30
	PUSH R18
	IN   R30,SPL
	IN   R31,SPH
	ST   -Y,R31
	ST   -Y,R30
	PUSH R21
	IN   R30,SPL
	IN   R31,SPH
	ST   -Y,R31
	ST   -Y,R30
	PUSH R20
	MOVW R26,R28
	ADIW R26,9
	RCALL _rtc_get_date
	POP  R20
	POP  R21
	POP  R18
; 0000 0050         printf("%02u\\%02u\\%02u %p\r", day, month, year, weekdays[week_day-1]);
	__POINTW1FN _0x0,57
	ST   -Y,R31
	ST   -Y,R30
	MOV  R30,R21
	CALL SUBOPT_0x0
	MOV  R30,R20
	CALL SUBOPT_0x0
	LDD  R30,Y+13
	CALL SUBOPT_0x0
	MOV  R30,R18
	LDI  R31,0
	SBIW R30,1
	LDI  R26,LOW(_weekdays)
	LDI  R27,HIGH(_weekdays)
	LSL  R30
	ROL  R31
	ADD  R26,R30
	ADC  R27,R31
	CALL __GETW1P
	CLR  R22
	CLR  R23
	CALL __PUTPARD1
	LDI  R24,16
	RCALL _printf
	ADIW R28,18
; 0000 0051 
; 0000 0052         rtc_get_time(&hour,&minute,&second);
	MOVW R30,R28
	ADIW R30,2
	ST   -Y,R31
	ST   -Y,R30
	MOVW R30,R28
	ADIW R30,3
	ST   -Y,R31
	ST   -Y,R30
	MOVW R26,R28
	ADIW R26,4
	RCALL _rtc_get_time
; 0000 0053         printf("%02u:%02u:%02u\r", hour, minute, second);
	__POINTW1FN _0x0,76
	ST   -Y,R31
	ST   -Y,R30
	LDD  R30,Y+4
	CALL SUBOPT_0x0
	LDD  R30,Y+7
	CALL SUBOPT_0x0
	LDD  R30,Y+10
	CALL SUBOPT_0x0
	LDI  R24,12
	RCALL _printf
	ADIW R28,14
; 0000 0054 
; 0000 0055         delay_ms(1000);
	LDI  R26,LOW(1000)
	LDI  R27,HIGH(1000)
	CALL _delay_ms
; 0000 0056     }
	RJMP _0x4
; 0000 0057 }
_0x7:
	RJMP _0x7
; .FEND

	.CSEG
_rtc_init:
; .FSTART _rtc_init
	ST   -Y,R26
	LDD  R30,Y+2
	ANDI R30,LOW(0x3)
	STD  Y+2,R30
	LDD  R30,Y+1
	CPI  R30,0
	BREQ _0x2000003
	LDD  R30,Y+2
	ORI  R30,0x10
	STD  Y+2,R30
_0x2000003:
	LD   R30,Y
	CPI  R30,0
	BREQ _0x2000004
	LDD  R30,Y+2
	ORI  R30,0x80
	STD  Y+2,R30
_0x2000004:
	CALL SUBOPT_0x1
	LDI  R26,LOW(7)
	CALL _i2c_write
	LDD  R26,Y+2
	CALL SUBOPT_0x2
	RJMP _0x20A0001
; .FEND
_rtc_get_time:
; .FSTART _rtc_get_time
	ST   -Y,R27
	ST   -Y,R26
	CALL SUBOPT_0x1
	LDI  R26,LOW(0)
	CALL SUBOPT_0x2
	CALL SUBOPT_0x3
	CALL SUBOPT_0x4
	CALL SUBOPT_0x5
	CALL SUBOPT_0x6
	MOV  R26,R30
	RCALL _bcd2bin
	LDD  R26,Y+4
	LDD  R27,Y+4+1
	ST   X,R30
	CALL _i2c_stop
	ADIW R28,6
	RET
; .FEND
_rtc_set_time:
; .FSTART _rtc_set_time
	ST   -Y,R26
	CALL SUBOPT_0x1
	LDI  R26,LOW(0)
	CALL SUBOPT_0x7
	CALL SUBOPT_0x8
	CALL SUBOPT_0x9
	CALL SUBOPT_0x2
	RJMP _0x20A0001
; .FEND
_rtc_get_date:
; .FSTART _rtc_get_date
	ST   -Y,R27
	ST   -Y,R26
	CALL SUBOPT_0x1
	LDI  R26,LOW(3)
	CALL SUBOPT_0x2
	CALL SUBOPT_0x3
	LDD  R26,Y+6
	LDD  R27,Y+6+1
	ST   X,R30
	CALL SUBOPT_0x5
	LDD  R26,Y+4
	LDD  R27,Y+4+1
	ST   X,R30
	CALL SUBOPT_0x5
	CALL SUBOPT_0x6
	CALL SUBOPT_0x4
	CALL _i2c_stop
	ADIW R28,8
	RET
; .FEND
_rtc_set_date:
; .FSTART _rtc_set_date
	ST   -Y,R26
	CALL SUBOPT_0x1
	LDI  R26,LOW(3)
	CALL _i2c_write
	LDD  R26,Y+3
	CALL SUBOPT_0x9
	CALL SUBOPT_0x8
	CALL SUBOPT_0x7
	CALL SUBOPT_0x2
	ADIW R28,4
	RET
; .FEND
	#ifndef __SLEEP_DEFINED__
	#define __SLEEP_DEFINED__
	.EQU __se_bit=0x01
	.EQU __sm_mask=0x0E
	.EQU __sm_adc_noise_red=0x02
	.EQU __sm_powerdown=0x04
	.EQU __sm_powersave=0x06
	.EQU __sm_standby=0x0C
	.EQU __sm_ext_standby=0x0E
	.SET power_ctrl_reg=smcr
	#endif

	.CSEG
_putchar:
; .FSTART _putchar
	ST   -Y,R26
_0x2020006:
	LDS  R30,192
	ANDI R30,LOW(0x20)
	BREQ _0x2020006
	LD   R30,Y
	STS  198,R30
	ADIW R28,1
	RET
; .FEND
_put_usart_G101:
; .FSTART _put_usart_G101
	ST   -Y,R27
	ST   -Y,R26
	LDD  R26,Y+2
	RCALL _putchar
	LD   R26,Y
	LDD  R27,Y+1
	LD   R30,X+
	LD   R31,X+
	ADIW R30,1
	ST   -X,R31
	ST   -X,R30
_0x20A0001:
	ADIW R28,3
	RET
; .FEND
__print_G101:
; .FSTART __print_G101
	ST   -Y,R27
	ST   -Y,R26
	SBIW R28,6
	CALL __SAVELOCR6
	LDI  R17,0
	LDD  R26,Y+12
	LDD  R27,Y+12+1
	LDI  R30,LOW(0)
	LDI  R31,HIGH(0)
	ST   X+,R30
	ST   X,R31
_0x202001C:
	LDD  R30,Y+18
	LDD  R31,Y+18+1
	ADIW R30,1
	STD  Y+18,R30
	STD  Y+18+1,R31
	SBIW R30,1
	LPM  R30,Z
	MOV  R18,R30
	CPI  R30,0
	BRNE PC+2
	RJMP _0x202001E
	MOV  R30,R17
	CPI  R30,0
	BRNE _0x2020022
	CPI  R18,37
	BRNE _0x2020023
	LDI  R17,LOW(1)
	RJMP _0x2020024
_0x2020023:
	CALL SUBOPT_0xA
_0x2020024:
	RJMP _0x2020021
_0x2020022:
	CPI  R30,LOW(0x1)
	BRNE _0x2020025
	CPI  R18,37
	BRNE _0x2020026
	CALL SUBOPT_0xA
	RJMP _0x20200D2
_0x2020026:
	LDI  R17,LOW(2)
	LDI  R20,LOW(0)
	LDI  R16,LOW(0)
	CPI  R18,45
	BRNE _0x2020027
	LDI  R16,LOW(1)
	RJMP _0x2020021
_0x2020027:
	CPI  R18,43
	BRNE _0x2020028
	LDI  R20,LOW(43)
	RJMP _0x2020021
_0x2020028:
	CPI  R18,32
	BRNE _0x2020029
	LDI  R20,LOW(32)
	RJMP _0x2020021
_0x2020029:
	RJMP _0x202002A
_0x2020025:
	CPI  R30,LOW(0x2)
	BRNE _0x202002B
_0x202002A:
	LDI  R21,LOW(0)
	LDI  R17,LOW(3)
	CPI  R18,48
	BRNE _0x202002C
	ORI  R16,LOW(128)
	RJMP _0x2020021
_0x202002C:
	RJMP _0x202002D
_0x202002B:
	CPI  R30,LOW(0x3)
	BREQ PC+2
	RJMP _0x2020021
_0x202002D:
	CPI  R18,48
	BRLO _0x2020030
	CPI  R18,58
	BRLO _0x2020031
_0x2020030:
	RJMP _0x202002F
_0x2020031:
	LDI  R26,LOW(10)
	MUL  R21,R26
	MOV  R21,R0
	MOV  R30,R18
	SUBI R30,LOW(48)
	ADD  R21,R30
	RJMP _0x2020021
_0x202002F:
	MOV  R30,R18
	CPI  R30,LOW(0x63)
	BRNE _0x2020035
	CALL SUBOPT_0xB
	LDD  R30,Y+16
	LDD  R31,Y+16+1
	LDD  R26,Z+4
	ST   -Y,R26
	CALL SUBOPT_0xC
	RJMP _0x2020036
_0x2020035:
	CPI  R30,LOW(0x73)
	BRNE _0x2020038
	CALL SUBOPT_0xB
	CALL SUBOPT_0xD
	CALL _strlen
	MOV  R17,R30
	RJMP _0x2020039
_0x2020038:
	CPI  R30,LOW(0x70)
	BRNE _0x202003B
	CALL SUBOPT_0xB
	CALL SUBOPT_0xD
	CALL _strlenf
	MOV  R17,R30
	ORI  R16,LOW(8)
_0x2020039:
	ORI  R16,LOW(2)
	ANDI R16,LOW(127)
	LDI  R19,LOW(0)
	RJMP _0x202003C
_0x202003B:
	CPI  R30,LOW(0x64)
	BREQ _0x202003F
	CPI  R30,LOW(0x69)
	BRNE _0x2020040
_0x202003F:
	ORI  R16,LOW(4)
	RJMP _0x2020041
_0x2020040:
	CPI  R30,LOW(0x75)
	BRNE _0x2020042
_0x2020041:
	LDI  R30,LOW(_tbl10_G101*2)
	LDI  R31,HIGH(_tbl10_G101*2)
	STD  Y+6,R30
	STD  Y+6+1,R31
	LDI  R17,LOW(5)
	RJMP _0x2020043
_0x2020042:
	CPI  R30,LOW(0x58)
	BRNE _0x2020045
	ORI  R16,LOW(8)
	RJMP _0x2020046
_0x2020045:
	CPI  R30,LOW(0x78)
	BREQ PC+2
	RJMP _0x2020077
_0x2020046:
	LDI  R30,LOW(_tbl16_G101*2)
	LDI  R31,HIGH(_tbl16_G101*2)
	STD  Y+6,R30
	STD  Y+6+1,R31
	LDI  R17,LOW(4)
_0x2020043:
	SBRS R16,2
	RJMP _0x2020048
	CALL SUBOPT_0xB
	CALL SUBOPT_0xE
	LDD  R26,Y+11
	TST  R26
	BRPL _0x2020049
	LDD  R30,Y+10
	LDD  R31,Y+10+1
	CALL __ANEGW1
	STD  Y+10,R30
	STD  Y+10+1,R31
	LDI  R20,LOW(45)
_0x2020049:
	CPI  R20,0
	BREQ _0x202004A
	SUBI R17,-LOW(1)
	RJMP _0x202004B
_0x202004A:
	ANDI R16,LOW(251)
_0x202004B:
	RJMP _0x202004C
_0x2020048:
	CALL SUBOPT_0xB
	CALL SUBOPT_0xE
_0x202004C:
_0x202003C:
	SBRC R16,0
	RJMP _0x202004D
_0x202004E:
	CP   R17,R21
	BRSH _0x2020050
	SBRS R16,7
	RJMP _0x2020051
	SBRS R16,2
	RJMP _0x2020052
	ANDI R16,LOW(251)
	MOV  R18,R20
	SUBI R17,LOW(1)
	RJMP _0x2020053
_0x2020052:
	LDI  R18,LOW(48)
_0x2020053:
	RJMP _0x2020054
_0x2020051:
	LDI  R18,LOW(32)
_0x2020054:
	CALL SUBOPT_0xA
	SUBI R21,LOW(1)
	RJMP _0x202004E
_0x2020050:
_0x202004D:
	MOV  R19,R17
	SBRS R16,1
	RJMP _0x2020055
_0x2020056:
	CPI  R19,0
	BREQ _0x2020058
	SBRS R16,3
	RJMP _0x2020059
	LDD  R30,Y+6
	LDD  R31,Y+6+1
	LPM  R18,Z+
	STD  Y+6,R30
	STD  Y+6+1,R31
	RJMP _0x202005A
_0x2020059:
	LDD  R26,Y+6
	LDD  R27,Y+6+1
	LD   R18,X+
	STD  Y+6,R26
	STD  Y+6+1,R27
_0x202005A:
	CALL SUBOPT_0xA
	CPI  R21,0
	BREQ _0x202005B
	SUBI R21,LOW(1)
_0x202005B:
	SUBI R19,LOW(1)
	RJMP _0x2020056
_0x2020058:
	RJMP _0x202005C
_0x2020055:
_0x202005E:
	LDI  R18,LOW(48)
	LDD  R30,Y+6
	LDD  R31,Y+6+1
	CALL __GETW1PF
	STD  Y+8,R30
	STD  Y+8+1,R31
	LDD  R30,Y+6
	LDD  R31,Y+6+1
	ADIW R30,2
	STD  Y+6,R30
	STD  Y+6+1,R31
_0x2020060:
	LDD  R30,Y+8
	LDD  R31,Y+8+1
	LDD  R26,Y+10
	LDD  R27,Y+10+1
	CP   R26,R30
	CPC  R27,R31
	BRLO _0x2020062
	SUBI R18,-LOW(1)
	LDD  R26,Y+8
	LDD  R27,Y+8+1
	LDD  R30,Y+10
	LDD  R31,Y+10+1
	SUB  R30,R26
	SBC  R31,R27
	STD  Y+10,R30
	STD  Y+10+1,R31
	RJMP _0x2020060
_0x2020062:
	CPI  R18,58
	BRLO _0x2020063
	SBRS R16,3
	RJMP _0x2020064
	SUBI R18,-LOW(7)
	RJMP _0x2020065
_0x2020064:
	SUBI R18,-LOW(39)
_0x2020065:
_0x2020063:
	SBRC R16,4
	RJMP _0x2020067
	CPI  R18,49
	BRSH _0x2020069
	LDD  R26,Y+8
	LDD  R27,Y+8+1
	SBIW R26,1
	BRNE _0x2020068
_0x2020069:
	RJMP _0x20200D3
_0x2020068:
	CP   R21,R19
	BRLO _0x202006D
	SBRS R16,0
	RJMP _0x202006E
_0x202006D:
	RJMP _0x202006C
_0x202006E:
	LDI  R18,LOW(32)
	SBRS R16,7
	RJMP _0x202006F
	LDI  R18,LOW(48)
_0x20200D3:
	ORI  R16,LOW(16)
	SBRS R16,2
	RJMP _0x2020070
	ANDI R16,LOW(251)
	ST   -Y,R20
	CALL SUBOPT_0xC
	CPI  R21,0
	BREQ _0x2020071
	SUBI R21,LOW(1)
_0x2020071:
_0x2020070:
_0x202006F:
_0x2020067:
	CALL SUBOPT_0xA
	CPI  R21,0
	BREQ _0x2020072
	SUBI R21,LOW(1)
_0x2020072:
_0x202006C:
	SUBI R19,LOW(1)
	LDD  R26,Y+8
	LDD  R27,Y+8+1
	SBIW R26,2
	BRLO _0x202005F
	RJMP _0x202005E
_0x202005F:
_0x202005C:
	SBRS R16,0
	RJMP _0x2020073
_0x2020074:
	CPI  R21,0
	BREQ _0x2020076
	SUBI R21,LOW(1)
	LDI  R30,LOW(32)
	ST   -Y,R30
	CALL SUBOPT_0xC
	RJMP _0x2020074
_0x2020076:
_0x2020073:
_0x2020077:
_0x2020036:
_0x20200D2:
	LDI  R17,LOW(0)
_0x2020021:
	RJMP _0x202001C
_0x202001E:
	LDD  R26,Y+12
	LDD  R27,Y+12+1
	CALL __GETW1P
	CALL __LOADLOCR6
	ADIW R28,20
	RET
; .FEND
_printf:
; .FSTART _printf
	PUSH R15
	MOV  R15,R24
	SBIW R28,6
	ST   -Y,R17
	ST   -Y,R16
	MOVW R26,R28
	ADIW R26,4
	CALL __ADDW2R15
	MOVW R16,R26
	LDI  R30,LOW(0)
	STD  Y+4,R30
	STD  Y+4+1,R30
	STD  Y+6,R30
	STD  Y+6+1,R30
	MOVW R26,R28
	ADIW R26,8
	CALL __ADDW2R15
	CALL __GETW1P
	ST   -Y,R31
	ST   -Y,R30
	ST   -Y,R17
	ST   -Y,R16
	LDI  R30,LOW(_put_usart_G101)
	LDI  R31,HIGH(_put_usart_G101)
	ST   -Y,R31
	ST   -Y,R30
	MOVW R26,R28
	ADIW R26,8
	RCALL __print_G101
	LDD  R17,Y+1
	LDD  R16,Y+0
	ADIW R28,8
	POP  R15
	RET
; .FEND

	.CSEG
_bcd2bin:
; .FSTART _bcd2bin
	ST   -Y,R26
    ld   r30,y
    swap r30
    andi r30,0xf
    mov  r26,r30
    lsl  r26
    lsl  r26
    add  r30,r26
    lsl  r30
    ld   r26,y+
    andi r26,0xf
    add  r30,r26
    ret
; .FEND
_bin2bcd:
; .FSTART _bin2bcd
	ST   -Y,R26
    ld   r26,y+
    clr  r30
bin2bcd0:
    subi r26,10
    brmi bin2bcd1
    subi r30,-16
    rjmp bin2bcd0
bin2bcd1:
    subi r26,-10
    add  r30,r26
    ret
; .FEND

	.CSEG

	.CSEG
_strlen:
; .FSTART _strlen
	ST   -Y,R27
	ST   -Y,R26
    ld   r26,y+
    ld   r27,y+
    clr  r30
    clr  r31
strlen0:
    ld   r22,x+
    tst  r22
    breq strlen1
    adiw r30,1
    rjmp strlen0
strlen1:
    ret
; .FEND
_strlenf:
; .FSTART _strlenf
	ST   -Y,R27
	ST   -Y,R26
    clr  r26
    clr  r27
    ld   r30,y+
    ld   r31,y+
strlenf0:
	lpm  r0,z+
    tst  r0
    breq strlenf1
    adiw r26,1
    rjmp strlenf0
strlenf1:
    movw r30,r26
    ret
; .FEND

	.DSEG
_weekdays:
	.BYTE 0xE

	.CSEG
;OPTIMIZER ADDED SUBROUTINE, CALLED 6 TIMES, CODE SIZE REDUCTION:12 WORDS
SUBOPT_0x0:
	CLR  R31
	CLR  R22
	CLR  R23
	CALL __PUTPARD1
	RET

;OPTIMIZER ADDED SUBROUTINE, CALLED 5 TIMES, CODE SIZE REDUCTION:9 WORDS
SUBOPT_0x1:
	CALL _i2c_start
	LDI  R26,LOW(208)
	JMP  _i2c_write

;OPTIMIZER ADDED SUBROUTINE, CALLED 5 TIMES, CODE SIZE REDUCTION:5 WORDS
SUBOPT_0x2:
	CALL _i2c_write
	JMP  _i2c_stop

;OPTIMIZER ADDED SUBROUTINE, CALLED 2 TIMES, CODE SIZE REDUCTION:3 WORDS
SUBOPT_0x3:
	CALL _i2c_start
	LDI  R26,LOW(209)
	CALL _i2c_write
	LDI  R26,LOW(1)
	JMP  _i2c_read

;OPTIMIZER ADDED SUBROUTINE, CALLED 2 TIMES, CODE SIZE REDUCTION:1 WORDS
SUBOPT_0x4:
	MOV  R26,R30
	CALL _bcd2bin
	LD   R26,Y
	LDD  R27,Y+1
	ST   X,R30
	RET

;OPTIMIZER ADDED SUBROUTINE, CALLED 3 TIMES, CODE SIZE REDUCTION:5 WORDS
SUBOPT_0x5:
	LDI  R26,LOW(1)
	CALL _i2c_read
	MOV  R26,R30
	JMP  _bcd2bin

;OPTIMIZER ADDED SUBROUTINE, CALLED 2 TIMES, CODE SIZE REDUCTION:1 WORDS
SUBOPT_0x6:
	LDD  R26,Y+2
	LDD  R27,Y+2+1
	ST   X,R30
	LDI  R26,LOW(0)
	JMP  _i2c_read

;OPTIMIZER ADDED SUBROUTINE, CALLED 2 TIMES, CODE SIZE REDUCTION:1 WORDS
SUBOPT_0x7:
	CALL _i2c_write
	LD   R26,Y
	CALL _bin2bcd
	MOV  R26,R30
	RET

;OPTIMIZER ADDED SUBROUTINE, CALLED 2 TIMES, CODE SIZE REDUCTION:1 WORDS
SUBOPT_0x8:
	CALL _i2c_write
	LDD  R26,Y+1
	CALL _bin2bcd
	MOV  R26,R30
	RET

;OPTIMIZER ADDED SUBROUTINE, CALLED 2 TIMES, CODE SIZE REDUCTION:1 WORDS
SUBOPT_0x9:
	CALL _i2c_write
	LDD  R26,Y+2
	CALL _bin2bcd
	MOV  R26,R30
	RET

;OPTIMIZER ADDED SUBROUTINE, CALLED 5 TIMES, CODE SIZE REDUCTION:13 WORDS
SUBOPT_0xA:
	ST   -Y,R18
	LDD  R26,Y+13
	LDD  R27,Y+13+1
	LDD  R30,Y+15
	LDD  R31,Y+15+1
	ICALL
	RET

;OPTIMIZER ADDED SUBROUTINE, CALLED 5 TIMES, CODE SIZE REDUCTION:9 WORDS
SUBOPT_0xB:
	LDD  R30,Y+16
	LDD  R31,Y+16+1
	SBIW R30,4
	STD  Y+16,R30
	STD  Y+16+1,R31
	RET

;OPTIMIZER ADDED SUBROUTINE, CALLED 3 TIMES, CODE SIZE REDUCTION:3 WORDS
SUBOPT_0xC:
	LDD  R26,Y+13
	LDD  R27,Y+13+1
	LDD  R30,Y+15
	LDD  R31,Y+15+1
	ICALL
	RET

;OPTIMIZER ADDED SUBROUTINE, CALLED 2 TIMES, CODE SIZE REDUCTION:4 WORDS
SUBOPT_0xD:
	LDD  R26,Y+16
	LDD  R27,Y+16+1
	ADIW R26,4
	CALL __GETW1P
	STD  Y+6,R30
	STD  Y+6+1,R31
	LDD  R26,Y+6
	LDD  R27,Y+6+1
	RET

;OPTIMIZER ADDED SUBROUTINE, CALLED 2 TIMES, CODE SIZE REDUCTION:2 WORDS
SUBOPT_0xE:
	LDD  R26,Y+16
	LDD  R27,Y+16+1
	ADIW R26,4
	CALL __GETW1P
	STD  Y+10,R30
	STD  Y+10+1,R31
	RET


	.CSEG
	.equ __sda_bit=4
	.equ __scl_bit=5
	.equ __i2c_port=0x08 ;PORTC
	.equ __i2c_dir=__i2c_port-1
	.equ __i2c_pin=__i2c_port-2

_i2c_init:
	cbi  __i2c_port,__scl_bit
	cbi  __i2c_port,__sda_bit
	sbi  __i2c_dir,__scl_bit
	cbi  __i2c_dir,__sda_bit
	rjmp __i2c_delay2
_i2c_start:
	cbi  __i2c_dir,__sda_bit
	cbi  __i2c_dir,__scl_bit
	clr  r30
	nop
	sbis __i2c_pin,__sda_bit
	ret
	sbis __i2c_pin,__scl_bit
	ret
	rcall __i2c_delay1
	sbi  __i2c_dir,__sda_bit
	rcall __i2c_delay1
	sbi  __i2c_dir,__scl_bit
	ldi  r30,1
__i2c_delay1:
	ldi  r22,27
	rjmp __i2c_delay2l
_i2c_stop:
	sbi  __i2c_dir,__sda_bit
	sbi  __i2c_dir,__scl_bit
	rcall __i2c_delay2
	cbi  __i2c_dir,__scl_bit
	rcall __i2c_delay1
	cbi  __i2c_dir,__sda_bit
__i2c_delay2:
	ldi  r22,53
__i2c_delay2l:
	dec  r22
	brne __i2c_delay2l
	ret
_i2c_read:
	ldi  r23,8
__i2c_read0:
	cbi  __i2c_dir,__scl_bit
	rcall __i2c_delay1
__i2c_read3:
	sbis __i2c_pin,__scl_bit
	rjmp __i2c_read3
	rcall __i2c_delay1
	clc
	sbic __i2c_pin,__sda_bit
	sec
	sbi  __i2c_dir,__scl_bit
	rcall __i2c_delay2
	rol  r30
	dec  r23
	brne __i2c_read0
	mov  r23,r26
	tst  r23
	brne __i2c_read1
	cbi  __i2c_dir,__sda_bit
	rjmp __i2c_read2
__i2c_read1:
	sbi  __i2c_dir,__sda_bit
__i2c_read2:
	rcall __i2c_delay1
	cbi  __i2c_dir,__scl_bit
	rcall __i2c_delay2
	sbi  __i2c_dir,__scl_bit
	rcall __i2c_delay1
	cbi  __i2c_dir,__sda_bit
	rjmp __i2c_delay1

_i2c_write:
	ldi  r23,8
__i2c_write0:
	lsl  r26
	brcc __i2c_write1
	cbi  __i2c_dir,__sda_bit
	rjmp __i2c_write2
__i2c_write1:
	sbi  __i2c_dir,__sda_bit
__i2c_write2:
	rcall __i2c_delay2
	cbi  __i2c_dir,__scl_bit
	rcall __i2c_delay1
__i2c_write3:
	sbis __i2c_pin,__scl_bit
	rjmp __i2c_write3
	rcall __i2c_delay1
	sbi  __i2c_dir,__scl_bit
	dec  r23
	brne __i2c_write0
	cbi  __i2c_dir,__sda_bit
	rcall __i2c_delay1
	cbi  __i2c_dir,__scl_bit
	rcall __i2c_delay2
	ldi  r30,1
	sbic __i2c_pin,__sda_bit
	clr  r30
	sbi  __i2c_dir,__scl_bit
	rjmp __i2c_delay1

_delay_ms:
	adiw r26,0
	breq __delay_ms1
__delay_ms0:
	__DELAY_USW 0xFA0
	wdr
	sbiw r26,1
	brne __delay_ms0
__delay_ms1:
	ret

__ADDW2R15:
	CLR  R0
	ADD  R26,R15
	ADC  R27,R0
	RET

__ANEGW1:
	NEG  R31
	NEG  R30
	SBCI R31,0
	RET

__GETW1P:
	LD   R30,X+
	LD   R31,X
	SBIW R26,1
	RET

__GETW1PF:
	LPM  R0,Z+
	LPM  R31,Z
	MOV  R30,R0
	RET

__PUTPARD1:
	ST   -Y,R23
	ST   -Y,R22
	ST   -Y,R31
	ST   -Y,R30
	RET

__SAVELOCR6:
	ST   -Y,R21
__SAVELOCR5:
	ST   -Y,R20
__SAVELOCR4:
	ST   -Y,R19
__SAVELOCR3:
	ST   -Y,R18
__SAVELOCR2:
	ST   -Y,R17
	ST   -Y,R16
	RET

__LOADLOCR6:
	LDD  R21,Y+5
__LOADLOCR5:
	LDD  R20,Y+4
__LOADLOCR4:
	LDD  R19,Y+3
__LOADLOCR3:
	LDD  R18,Y+2
__LOADLOCR2:
	LDD  R17,Y+1
	LD   R16,Y
	RET

;END OF CODE MARKER
__END_OF_CODE:
